ccopy_reg
_reconstructor
p0
(crequests.sessions
Session
p1
c__builtin__
object
p2
Ntp3
Rp4
(dp5
S'cookies'
p6
g0
(crequests.cookies
RequestsCookieJar
p7
g2
Ntp8
Rp9
(dp10
S'_now'
p11
I1472105100
sS'_policy'
p12
(icookielib
DefaultCookiePolicy
p13
(dp14
S'strict_rfc2965_unverifiable'
p15
I01
sS'strict_ns_domain'
p16
I0
sS'_allowed_domains'
p17
NsS'rfc2109_as_netscape'
p18
NsS'rfc2965'
p19
I00
sS'strict_domain'
p20
I00
sS'_now'
p21
I1472105100
sS'strict_ns_set_path'
p22
I00
sS'strict_ns_unverifiable'
p23
I00
sS'strict_ns_set_initial_dollar'
p24
I00
sS'hide_cookie2'
p25
I00
sS'_blocked_domains'
p26
(tsS'netscape'
p27
I01
sbsS'_cookies'
p28
(dp29
S'store.steampowered.com'
p30
(dp31
S'/'
p32
(dp33
S'steamLoginSecure'
p34
(icookielib
Cookie
p35
(dp36
S'comment'
p37
NsS'domain'
p38
S'store.steampowered.com'
p39
sS'name'
p40
S'steamLoginSecure'
p41
sS'domain_initial_dot'
p42
I00
sS'expires'
p43
NsS'value'
p44
S'76561198035531982%7C%7C4672ABD6A10BB88DC3BCD50F568BBAE7A85DD7A8'
p45
sS'domain_specified'
p46
I00
sS'_rest'
p47
(dp48
S'httponly'
p49
NssS'version'
p50
I0
sS'port_specified'
p51
I00
sS'rfc2109'
p52
I00
sS'discard'
p53
I01
sS'path_specified'
p54
I01
sS'path'
p55
S'/'
p56
sS'port'
p57
NsS'comment_url'
p58
NsS'secure'
p59
I01
sbsS'steamRememberLoginError'
p60
(icookielib
Cookie
p61
(dp62
g37
Nsg38
S'store.steampowered.com'
p63
sg40
S'steamRememberLoginError'
p64
sg42
I00
sg43
I1472105155
sg44
S'1'
p65
sg46
I00
sg47
(dp66
sg50
I0
sg51
I00
sg52
I00
sg53
I00
sg54
I01
sg55
g56
sg57
Nsg58
Nsg59
I00
sbsS'Steam_Language'
p67
(icookielib
Cookie
p68
(dp69
g37
Nsg38
S'store.steampowered.com'
p70
sg40
g67
sg42
I00
sg43
Nsg44
S'english'
p71
sg46
I01
sg47
(dp72
S'HttpOnly'
p73
Nssg50
I0
sg51
I00
sg52
I00
sg53
I01
sg54
I01
sg55
g32
sg57
Nsg58
Nsg59
I00
sbsS'steamCountry'
p74
(icookielib
Cookie
p75
(dp76
g37
Nsg38
S'store.steampowered.com'
p77
sg40
S'steamCountry'
p78
sg42
I00
sg43
Nsg44
S'AR%7C3334bd9b2d65de9f90b1c6cb5b74d159'
p79
sg46
I00
sg47
(dp80
sg50
I0
sg51
I00
sg52
I00
sg53
I01
sg54
I01
sg55
g56
sg57
Nsg58
Nsg59
I00
sbsS'steamLogin'
p81
(icookielib
Cookie
p82
(dp83
g37
Nsg38
S'store.steampowered.com'
p84
sg40
S'steamLogin'
p85
sg42
I00
sg43
Nsg44
S'76561198035531982%7C%7C91C2037E3925DD1BC6F14654B56BECE5274DEC67'
p86
sg46
I00
sg47
(dp87
S'httponly'
p88
Nssg50
I0
sg51
I00
sg52
I00
sg53
I01
sg54
I01
sg55
g56
sg57
Nsg58
Nsg59
I00
sbsS'browserid'
p89
(icookielib
Cookie
p90
(dp91
g37
Nsg38
S'store.steampowered.com'
p92
sg40
g89
sg42
I00
sg43
I1502280925
sg44
S'204171315623746029'
p93
sg46
I00
sg47
(dp94
sg50
I0
sg51
I00
sg52
I00
sg53
I00
sg54
I01
sg55
g32
sg57
Nsg58
Nsg59
I00
sbsS'shoppingCartGID'
p95
(icookielib
Cookie
p96
(dp97
g37
Nsg38
S'store.steampowered.com'
p98
sg40
S'shoppingCartGID'
p99
sg42
I00
sg43
I1472709899
sg44
S'349414337587607748'
p100
sg46
I00
sg47
(dp101
sg50
I0
sg51
I00
sg52
I00
sg53
I00
sg54
I01
sg55
g56
sg57
Nsg58
Nsg59
I00
sbsS'sessionid'
p102
(icookielib
Cookie
p103
(dp104
g37
Nsg38
S'store.steampowered.com'
p105
sg40
g102
sg42
I00
sg43
Nsg44
S'7707c559cd30358da8064539'
p106
sg46
I00
sg47
(dp107
sg50
I0
sg51
I00
sg52
I00
sg53
I01
sg54
I01
sg55
g32
sg57
Nsg58
Nsg59
I00
sbsS'birthtime'
p108
(icookielib
Cookie
p109
(dp110
g37
Nsg38
S'store.steampowered.com'
p111
sg40
g108
sg42
I00
sg43
Nsg44
S'-3333'
p112
sg46
I01
sg47
(dp113
g73
Nssg50
I0
sg51
I00
sg52
I00
sg53
I01
sg54
I01
sg55
g32
sg57
Nsg58
Nsg59
I00
sbsS'steamRememberLogin'
p114
(icookielib
Cookie
p115
(dp116
g37
Nsg38
S'store.steampowered.com'
p117
sg40
g114
sg42
I00
sg43
Nsg44
S'76561198035531982%7C%7C50aeff1b0db2224b8247c894e40eca62'
p118
sg46
I01
sg47
(dp119
g73
Nssg50
I0
sg51
I00
sg52
I00
sg53
I01
sg54
I01
sg55
g32
sg57
Nsg58
Nsg59
I00
sbsS'steamMachineAuth76561198035531982'
p120
(icookielib
Cookie
p121
(dp122
g37
Nsg38
S'store.steampowered.com'
p123
sg40
g120
sg42
I00
sg43
Nsg44
S'346D46106DA4EF4743D5747C5F4492C9CCF0D746'
p124
sg46
I01
sg47
(dp125
g73
Nssg50
I0
sg51
I00
sg52
I00
sg53
I01
sg54
I01
sg55
g32
sg57
Nsg58
Nsg59
I01
sbsssS'steamcommunity.com'
p126
(dp127
g32
(dp128
S'steamLoginSecure'
p129
(icookielib
Cookie
p130
(dp131
g37
Nsg38
S'steamcommunity.com'
p132
sg40
g129
sg42
I00
sg43
Nsg44
S'76561198035531982%7C%7CC9F572A6A4E91C1CD7DFF28EFA1AFD3BC40A948A'
p133
sg46
I01
sg47
(dp134
g73
Nssg50
I0
sg51
I00
sg52
I00
sg53
I01
sg54
I01
sg55
g32
sg57
Nsg58
Nsg59
I01
sbsg67
(icookielib
Cookie
p135
(dp136
g37
Nsg38
S'steamcommunity.com'
p137
sg40
g67
sg42
I00
sg43
Nsg44
g71
sg46
I01
sg47
(dp138
g73
Nssg50
I0
sg51
I00
sg52
I00
sg53
I01
sg54
I01
sg55
g32
sg57
Nsg58
Nsg59
I00
sbsg74
(icookielib
Cookie
p139
(dp140
g37
Nsg38
S'steamcommunity.com'
p141
sg40
g74
sg42
I00
sg43
Nsg44
S'AR%7C20c10295b2e1e60b8f837479fbb6269b'
p142
sg46
I01
sg47
(dp143
g73
Nssg50
I0
sg51
I00
sg52
I00
sg53
I01
sg54
I01
sg55
g32
sg57
Nsg58
Nsg59
I00
sbsS'steamLogin'
p144
(icookielib
Cookie
p145
(dp146
g37
Nsg38
S'steamcommunity.com'
p147
sg40
g144
sg42
I00
sg43
Nsg44
S'76561198035531982%7C%7CEC21B463BAE8C3B6D9B5B0EAB186B5B4233C2BAE'
p148
sg46
I01
sg47
(dp149
g73
Nssg50
I0
sg51
I00
sg52
I00
sg53
I01
sg54
I01
sg55
g32
sg57
Nsg58
Nsg59
I00
sbsg108
(icookielib
Cookie
p150
(dp151
g37
Nsg38
S'steamcommunity.com'
p152
sg40
g108
sg42
I00
sg43
Nsg44
g112
sg46
I01
sg47
(dp153
g73
Nssg50
I0
sg51
I00
sg52
I00
sg53
I01
sg54
I01
sg55
g32
sg57
Nsg58
Nsg59
I00
sbsg114
(icookielib
Cookie
p154
(dp155
g37
Nsg38
S'steamcommunity.com'
p156
sg40
g114
sg42
I00
sg43
Nsg44
g118
sg46
I01
sg47
(dp157
g73
Nssg50
I0
sg51
I00
sg52
I00
sg53
I01
sg54
I01
sg55
g32
sg57
Nsg58
Nsg59
I00
sbsg120
(icookielib
Cookie
p158
(dp159
g37
Nsg38
S'steamcommunity.com'
p160
sg40
g120
sg42
I00
sg43
Nsg44
g124
sg46
I01
sg47
(dp161
g73
Nssg50
I0
sg51
I00
sg52
I00
sg53
I01
sg54
I01
sg55
g32
sg57
Nsg58
Nsg59
I01
sbsssS'help.steampowered.com'
p162
(dp163
g32
(dp164
g129
(icookielib
Cookie
p165
(dp166
g37
Nsg38
S'help.steampowered.com'
p167
sg40
g129
sg42
I00
sg43
Nsg44
g133
sg46
I01
sg47
(dp168
g73
Nssg50
I0
sg51
I00
sg52
I00
sg53
I01
sg54
I01
sg55
g32
sg57
Nsg58
Nsg59
I01
sbsg67
(icookielib
Cookie
p169
(dp170
g37
Nsg38
S'help.steampowered.com'
p171
sg40
g67
sg42
I00
sg43
Nsg44
g71
sg46
I01
sg47
(dp172
g73
Nssg50
I0
sg51
I00
sg52
I00
sg53
I01
sg54
I01
sg55
g32
sg57
Nsg58
Nsg59
I00
sbsg74
(icookielib
Cookie
p173
(dp174
g37
Nsg38
g162
sg40
g74
sg42
I00
sg43
Nsg44
g142
sg46
I01
sg47
(dp175
g73
Nssg50
I0
sg51
I00
sg52
I00
sg53
I01
sg54
I01
sg55
g32
sg57
Nsg58
Nsg59
I00
sbsg144
(icookielib
Cookie
p176
(dp177
g37
Nsg38
S'help.steampowered.com'
p178
sg40
g144
sg42
I00
sg43
Nsg44
g148
sg46
I01
sg47
(dp179
g73
Nssg50
I0
sg51
I00
sg52
I00
sg53
I01
sg54
I01
sg55
g32
sg57
Nsg58
Nsg59
I00
sbsg108
(icookielib
Cookie
p180
(dp181
g37
Nsg38
S'help.steampowered.com'
p182
sg40
g108
sg42
I00
sg43
Nsg44
g112
sg46
I01
sg47
(dp183
g73
Nssg50
I0
sg51
I00
sg52
I00
sg53
I01
sg54
I01
sg55
g32
sg57
Nsg58
Nsg59
I00
sbsg114
(icookielib
Cookie
p184
(dp185
g37
Nsg38
S'help.steampowered.com'
p186
sg40
g114
sg42
I00
sg43
Nsg44
g118
sg46
I01
sg47
(dp187
g73
Nssg50
I0
sg51
I00
sg52
I00
sg53
I01
sg54
I01
sg55
g32
sg57
Nsg58
Nsg59
I00
sbsg120
(icookielib
Cookie
p188
(dp189
g37
Nsg38
S'help.steampowered.com'
p190
sg40
g120
sg42
I00
sg43
Nsg44
g124
sg46
I01
sg47
(dp191
g73
Nssg50
I0
sg51
I00
sg52
I00
sg53
I01
sg54
I01
sg55
g32
sg57
Nsg58
Nsg59
I01
sbssssbsS'stream'
p192
I00
sS'hooks'
p193
(dp194
S'response'
p195
(lp196
ssS'redirect_cache'
p197
(dp198
sS'auth'
p199
NsS'trust_env'
p200
I01
sS'headers'
p201
g0
(crequests.structures
CaseInsensitiveDict
p202
g2
Ntp203
Rp204
(dp205
S'_store'
p206
crequests.packages.urllib3.packages.ordered_dict
OrderedDict
p207
((lp208
(lp209
S'connection'
p210
a(S'Connection'
p211
S'keep-alive'
p212
tp213
aa(lp214
S'accept-encoding'
p215
a(S'Accept-Encoding'
p216
S'gzip, deflate'
p217
tp218
aa(lp219
S'accept'
p220
a(S'Accept'
p221
S'*/*'
p222
tp223
aa(lp224
S'user-agent'
p225
a(S'User-Agent'
p226
S'python-steam/0.8.3 python-requests/2.10.0'
p227
tp228
aatp229
Rp230
sbsS'cert'
p231
NsS'params'
p232
(dp233
sS'prefetch'
p234
NsS'verify'
p235
I01
sS'proxies'
p236
(dp237
sS'adapters'
p238
g207
((lp239
(lp240
S'https://'
p241
ag0
(crequests.adapters
HTTPAdapter
p242
g2
Ntp243
Rp244
(dp245
S'_pool_block'
p246
I00
sS'_pool_maxsize'
p247
I10
sS'max_retries'
p248
g0
(crequests.packages.urllib3.util.retry
Retry
p249
g2
Ntp250
Rp251
(dp252
S'redirect'
p253
NsS'_observed_errors'
p254
I0
sS'read'
p255
I00
sS'backoff_factor'
p256
I0
sS'raise_on_status'
p257
I01
sS'connect'
p258
NsS'status_forcelist'
p259
c__builtin__
set
p260
((lp261
tp262
Rp263
sS'total'
p264
I0
sS'raise_on_redirect'
p265
I01
sS'method_whitelist'
p266
c__builtin__
frozenset
p267
((lp268
S'HEAD'
p269
aS'TRACE'
p270
aS'GET'
p271
aS'PUT'
p272
aS'OPTIONS'
p273
aS'DELETE'
p274
atp275
Rp276
sbsS'config'
p277
(dp278
sS'_pool_connections'
p279
I10
sbaa(lp280
S'http://'
p281
ag0
(g242
g2
Ntp282
Rp283
(dp284
g246
I00
sg247
I10
sg248
g0
(g249
g2
Ntp285
Rp286
(dp287
g253
Nsg254
I0
sg255
I00
sg256
I0
sg257
I01
sg258
Nsg259
g260
((lp288
tp289
Rp290
sg264
I0
sg265
I01
sg266
g276
sbsg277
(dp291
sg279
I10
sbaatp292
Rp293
sS'max_redirects'
p294
I30
sb.